ccopy_reg
_reconstructor
p0
(cneat.genome
FFGenome
p1
c__builtin__
object
p2
Ntp3
Rp4
(dp5
S'species_id'
p6
I24
sS'conn_genes'
p7
(dp8
(I7
I3
tp9
g0
(cneat.genes
ConnectionGene
p10
g2
Ntp11
Rp12
(dp13
S'weight'
p14
F3.48280413984685
sS'enabled'
p15
I01
sS'out_node_id'
p16
I3
sS'in_node_id'
p17
I7
sbs(I1
I3
tp18
g0
(g10
g2
Ntp19
Rp20
(dp21
g14
F0.12849815892386818
sg15
I01
sg16
I3
sg17
I1
sbs(I5
I9
tp22
g0
(g10
g2
Ntp23
Rp24
(dp25
g14
F0.8486715622922656
sg15
I01
sg16
I9
sg17
I5
sbs(I1
I15
tp26
g0
(g10
g2
Ntp27
Rp28
(dp29
g14
F0.7645134663041259
sg15
I01
sg16
I15
sg17
I1
sbs(I0
I3
tp30
g0
(g10
g2
Ntp31
Rp32
(dp33
g14
F-0.8840898736317291
sg15
I01
sg16
I3
sg17
I0
sbs(I1
I2
tp34
g0
(g10
g2
Ntp35
Rp36
(dp37
g14
F1.191454542140404
sg15
I01
sg16
I2
sg17
I1
sbs(I8
I14
tp38
g0
(g10
g2
Ntp39
Rp40
(dp41
g14
F0.24049670968621983
sg15
I01
sg16
I14
sg17
I8
sbs(I11
I10
tp42
g0
(g10
g2
Ntp43
Rp44
(dp45
g14
F0.8111433539841664
sg15
I01
sg16
I10
sg17
I11
sbs(I6
I7
tp46
g0
(g10
g2
Ntp47
Rp48
(dp49
g14
F-0.7261080964075347
sg15
I01
sg16
I7
sg17
I6
sbs(I8
I10
tp50
g0
(g10
g2
Ntp51
Rp52
(dp53
g14
F0.36032419850557384
sg15
I01
sg16
I10
sg17
I8
sbs(I6
I3
tp54
g0
(g10
g2
Ntp55
Rp56
(dp57
g14
F0.2078696108181632
sg15
I00
sg16
I3
sg17
I6
sbs(I1
I5
tp58
g0
(g10
g2
Ntp59
Rp60
(dp61
g14
F-2.3813430530888784
sg15
I01
sg16
I5
sg17
I1
sbs(I12
I10
tp62
g0
(g10
g2
Ntp63
Rp64
(dp65
g14
F-1.1315652836851182
sg15
I00
sg16
I10
sg17
I12
sbs(I8
I16
tp66
g0
(g10
g2
Ntp67
Rp68
(dp69
g14
F1.1147124939289277
sg15
I01
sg16
I16
sg17
I8
sbs(I12
I3
tp70
g0
(g10
g2
Ntp71
Rp72
(dp73
g14
F-9.385762111881371
sg15
I01
sg16
I3
sg17
I12
sbs(I11
I13
tp74
g0
(g10
g2
Ntp75
Rp76
(dp77
g14
F4.9723033294436645
sg15
I00
sg16
I13
sg17
I11
sbs(I16
I11
tp78
g0
(g10
g2
Ntp79
Rp80
(dp81
g14
F0.627812835447735
sg15
I01
sg16
I11
sg17
I16
sbs(I14
I10
tp82
g0
(g10
g2
Ntp83
Rp84
(dp85
g14
F1.850927369064878
sg15
I00
sg16
I10
sg17
I14
sbs(I8
I2
tp86
g0
(g10
g2
Ntp87
Rp88
(dp89
g14
F-0.9834860281668465
sg15
I00
sg16
I2
sg17
I8
sbs(I8
I11
tp90
g0
(g10
g2
Ntp91
Rp92
(dp93
g14
F-0.12076962378122147
sg15
I00
sg16
I11
sg17
I8
sbs(I0
I5
tp94
g0
(g10
g2
Ntp95
Rp96
(dp97
g14
F0.4769492608688209
sg15
I01
sg16
I5
sg17
I0
sbs(I6
I12
tp98
g0
(g10
g2
Ntp99
Rp100
(dp101
g14
F2.805751714661657
sg15
I01
sg16
I12
sg17
I6
sbs(I0
I8
tp102
g0
(g10
g2
Ntp103
Rp104
(dp105
g14
F-1.6837278339390467
sg15
I01
sg16
I8
sg17
I0
sbs(I13
I10
tp106
g0
(g10
g2
Ntp107
Rp108
(dp109
g14
F-2.3702578071722384
sg15
I00
sg16
I10
sg17
I13
sbs(I5
I3
tp110
g0
(g10
g2
Ntp111
Rp112
(dp113
g14
F-3.4989207562002305
sg15
I01
sg16
I3
sg17
I5
sbs(I8
I3
tp114
g0
(g10
g2
Ntp115
Rp116
(dp117
g14
F0.00786909411186605
sg15
I00
sg16
I3
sg17
I8
sbs(I15
I2
tp118
g0
(g10
g2
Ntp119
Rp120
(dp121
g14
F-3.3071518757758263
sg15
I01
sg16
I2
sg17
I15
sbs(I9
I2
tp122
g0
(g10
g2
Ntp123
Rp124
(dp125
g14
F7.581296120719343
sg15
I01
sg16
I2
sg17
I9
sbs(I0
I6
tp126
g0
(g10
g2
Ntp127
Rp128
(dp129
g14
F0.5208255415585932
sg15
I01
sg16
I6
sg17
I0
sbs(I5
I2
tp130
g0
(g10
g2
Ntp131
Rp132
(dp133
g14
F-1.9146144696298004
sg15
I00
sg16
I2
sg17
I5
sbssS'parent1_id'
p134
I559613
sS'num_inputs'
p135
I2
sS'node_genes'
p136
(dp137
I0
g0
(cneat.genes
NodeGene
p138
g2
Ntp139
Rp140
(dp141
S'activation_type'
p142
S'sigmoid'
p143
sS'bias'
p144
F0.0
sS'type'
p145
S'INPUT'
p146
sS'ID'
p147
I0
sS'response'
p148
F4.924273
sbsI1
g0
(g138
g2
Ntp149
Rp150
(dp151
g142
g143
sg144
F0.0
sg145
g146
sg147
I1
sg148
F4.924273
sbsI2
g0
(g138
g2
Ntp152
Rp153
(dp154
g142
Vsigmoid
p155
sg144
F-1.3629522575233024
sg145
S'OUTPUT'
p156
sg147
I2
sg148
F10.93723068350423
sbsI3
g0
(g138
g2
Ntp157
Rp158
(dp159
g142
g155
sg144
F-9.451578417940409
sg145
g156
sg147
I3
sg148
F12.953151475832911
sbsI4
g0
(g138
g2
Ntp160
Rp161
(dp162
g142
g155
sg144
F6.959578805988336
sg145
g156
sg147
I4
sg148
F9.027873791113308
sbsI5
g0
(g138
g2
Ntp163
Rp164
(dp165
g142
g155
sg144
F-3.922566753242036
sg145
S'HIDDEN'
p166
sg147
I5
sg148
F4.462261598859343
sbsI6
g0
(g138
g2
Ntp167
Rp168
(dp169
g142
g155
sg144
F-7.468996358010101
sg145
g166
sg147
I6
sg148
F5.3252751636590965
sbsI7
g0
(g138
g2
Ntp170
Rp171
(dp172
g142
g155
sg144
F2.2097798923114764
sg145
g166
sg147
I7
sg148
F11.283402013664498
sbsI8
g0
(g138
g2
Ntp173
Rp174
(dp175
g142
g155
sg144
F-5.593810618495513
sg145
g166
sg147
I8
sg148
F10.448644983866032
sbsI9
g0
(g138
g2
Ntp176
Rp177
(dp178
g142
g155
sg144
F2.1586132903659867
sg145
g166
sg147
I9
sg148
F1.5329887415256949
sbsI10
g0
(g138
g2
Ntp179
Rp180
(dp181
g142
g155
sg144
F6.3576105146770105
sg145
g166
sg147
I10
sg148
F-0.21661783277468755
sbsI11
g0
(g138
g2
Ntp182
Rp183
(dp184
g142
g155
sg144
F-3.499198597902996
sg145
g166
sg147
I11
sg148
F3.126957776362032
sbsI12
g0
(g138
g2
Ntp185
Rp186
(dp187
g142
g155
sg144
F-1.9160159396764653
sg145
g166
sg147
I12
sg148
F5.236408212142334
sbsI13
g0
(g138
g2
Ntp188
Rp189
(dp190
g142
g155
sg144
F-1.406431151685126
sg145
g166
sg147
I13
sg148
F9.562852683713027
sbsI14
g0
(g138
g2
Ntp191
Rp192
(dp193
g142
g155
sg144
F2.683790835589585
sg145
g166
sg147
I14
sg148
F6.17322060821339
sbsI15
g0
(g138
g2
Ntp194
Rp195
(dp196
g142
g155
sg144
F-1.3493095240480857
sg145
g166
sg147
I15
sg148
F3.448621335090562
sbsI16
g0
(g138
g2
Ntp197
Rp198
(dp199
g142
g155
sg144
F-0.5122280727775212
sg145
g166
sg147
I16
sg148
F4.734792120440722
sbssS'node_order'
p200
(lp201
I5
aI9
aI6
aI8
aI7
aI15
aI14
aI16
aI12
aI11
aI13
aI10
asS'num_outputs'
p202
I3
sS'fitness'
p203
F0.9999999998581821
sS'parent2_id'
p204
I559613
sS'config'
p205
g0
(cneat.config
Config
p206
g2
Ntp207
Rp208
(dp209
S'weight_stdev'
p210
F1.0
sS'disjoint_coefficient'
p211
F1.0
sS'prob_delete_node'
p212
F0.05
sS'initial_connection'
p213
Vfs_neat
p214
sS'stagnation_type'
p215
cneat.stagnation
DefaultStagnation
p216
sS'weight_mutation_power'
p217
F0.5
sS'excess_coefficient'
p218
F1.0
sS'compatibility_threshold'
p219
F3.0
sS'pop_size'
p220
I250
sS'weight_coefficient'
p221
F0.5
sS'feedforward'
p222
I01
sS'prob_add_node'
p223
F0.1
sS'genotype'
p224
g1
sS'type_config'
p225
(dp226
VDefaultStagnation
p227
(lp228
(S'species_fitness_func'
p229
Vmean
p230
tp231
a(S'max_stagnation'
p232
V10
p233
tp234
asVDefaultReproduction
p235
(lp236
(S'elitism'
p237
V2
p238
tp239
a(S'survival_threshold'
p240
V0.2
p241
tp242
assS'prob_mutate_activation'
p243
F0.0
sS'conn_gene_type'
p244
g10
sS'connection_fraction'
p245
NsS'activation_functions'
p246
(lp247
g155
asS'response_mutation_power'
p248
F0.5
sS'prob_add_conn'
p249
F0.1
sS'checkpoint_time_interval'
p250
NsS'checkpoint_gen_interval'
p251
NsS'prob_mutate_bias'
p252
F0.8
sS'reproduction_type'
p253
cneat.reproduction
DefaultReproduction
p254
sS'node_gene_type'
p255
g138
sS'output_nodes'
p256
I3
sS'input_nodes'
p257
I2
sS'prob_replace_weight'
p258
F0.1
sS'registry'
p259
(dp260
S'DefaultStagnation'
p261
g216
sS'DefaultReproduction'
p262
g254
ssS'hidden_nodes'
p263
I0
sS'report'
p264
I01
sS'prob_mutate_response'
p265
F0.8
sS'collect_statistics'
p266
I01
sS'max_weight'
p267
F30.0
sS'min_weight'
p268
F-30.0
sS'prob_toggle_link'
p269
F0.01
sS'save_best'
p270
I00
sS'max_fitness_threshold'
p271
F59999.0
sS'bias_mutation_power'
p272
F0.5
sS'prob_delete_conn'
p273
F0.05
sS'reset_on_extinction'
p274
I00
sS'prob_mutate_weight'
p275
F0.8
sbsg147
I562303
sb.