ccopy_reg
_reconstructor
p0
(cneat.genome
FFGenome
p1
c__builtin__
object
p2
Ntp3
Rp4
(dp5
S'species_id'
p6
I14
sS'conn_genes'
p7
(dp8
(I7
I3
tp9
g0
(cneat.genes
ConnectionGene
p10
g2
Ntp11
Rp12
(dp13
S'weight'
p14
F-7.547179855587153
sS'enabled'
p15
I01
sS'out_node_id'
p16
I3
sS'in_node_id'
p17
I7
sbs(I1
I3
tp18
g0
(g10
g2
Ntp19
Rp20
(dp21
g14
F1.78194334945006
sg15
I00
sg16
I3
sg17
I1
sbs(I0
I10
tp22
g0
(g10
g2
Ntp23
Rp24
(dp25
g14
F1.9480544016304178
sg15
I01
sg16
I10
sg17
I0
sbs(I0
I3
tp26
g0
(g10
g2
Ntp27
Rp28
(dp29
g14
F-3.2800409342389982
sg15
I01
sg16
I3
sg17
I0
sbs(I7
I2
tp30
g0
(g10
g2
Ntp31
Rp32
(dp33
g14
F-1.567397892058154
sg15
I01
sg16
I2
sg17
I7
sbs(I1
I2
tp34
g0
(g10
g2
Ntp35
Rp36
(dp37
g14
F1.134905909500191
sg15
I01
sg16
I2
sg17
I1
sbs(I6
I7
tp38
g0
(g10
g2
Ntp39
Rp40
(dp41
g14
F0.9702615628500738
sg15
I01
sg16
I7
sg17
I6
sbs(I0
I4
tp42
g0
(g10
g2
Ntp43
Rp44
(dp45
g14
F-0.9022337626331993
sg15
I00
sg16
I4
sg17
I0
sbs(I8
I6
tp46
g0
(g10
g2
Ntp47
Rp48
(dp49
g14
F-0.8392431037637922
sg15
I01
sg16
I6
sg17
I8
sbs(I1
I4
tp50
g0
(g10
g2
Ntp51
Rp52
(dp53
g14
F-1.6527192649397944
sg15
I00
sg16
I4
sg17
I1
sbs(I7
I5
tp54
g0
(g10
g2
Ntp55
Rp56
(dp57
g14
F1.5449791939725876
sg15
I01
sg16
I5
sg17
I7
sbs(I0
I5
tp58
g0
(g10
g2
Ntp59
Rp60
(dp61
g14
F1.9765010854637959
sg15
I00
sg16
I5
sg17
I0
sbs(I1
I9
tp62
g0
(g10
g2
Ntp63
Rp64
(dp65
g14
F-0.8005560746922273
sg15
I01
sg16
I9
sg17
I1
sbs(I8
I7
tp66
g0
(g10
g2
Ntp67
Rp68
(dp69
g14
F0.6381429572525146
sg15
I01
sg16
I7
sg17
I8
sbs(I0
I8
tp70
g0
(g10
g2
Ntp71
Rp72
(dp73
g14
F1.9312767683550376
sg15
I00
sg16
I8
sg17
I0
sbs(I6
I5
tp74
g0
(g10
g2
Ntp75
Rp76
(dp77
g14
F0.11280456148446172
sg15
I01
sg16
I5
sg17
I6
sbs(I10
I5
tp78
g0
(g10
g2
Ntp79
Rp80
(dp81
g14
F-2.807613585052517
sg15
I01
sg16
I5
sg17
I10
sbs(I9
I2
tp82
g0
(g10
g2
Ntp83
Rp84
(dp85
g14
F-0.3063340055833802
sg15
I01
sg16
I2
sg17
I9
sbs(I0
I6
tp86
g0
(g10
g2
Ntp87
Rp88
(dp89
g14
F1.7418869428609118
sg15
I01
sg16
I6
sg17
I0
sbs(I0
I9
tp90
g0
(g10
g2
Ntp91
Rp92
(dp93
g14
F-1.9658739643576029
sg15
I00
sg16
I9
sg17
I0
sbs(I5
I2
tp94
g0
(g10
g2
Ntp95
Rp96
(dp97
g14
F3.719545209627359
sg15
I01
sg16
I2
sg17
I5
sbs(I0
I2
tp98
g0
(g10
g2
Ntp99
Rp100
(dp101
g14
F-2.2685485412296438
sg15
I00
sg16
I2
sg17
I0
sbssS'parent1_id'
p102
I29296
sS'num_inputs'
p103
I2
sS'node_genes'
p104
(dp105
I0
g0
(cneat.genes
NodeGene
p106
g2
Ntp107
Rp108
(dp109
S'activation_type'
p110
S'sigmoid'
p111
sS'bias'
p112
F0.0
sS'type'
p113
S'INPUT'
p114
sS'ID'
p115
I0
sS'response'
p116
F4.924273
sbsI1
g0
(g106
g2
Ntp117
Rp118
(dp119
g110
g111
sg112
F0.0
sg113
g114
sg115
I1
sg116
F4.924273
sbsI2
g0
(g106
g2
Ntp120
Rp121
(dp122
g110
Vsigmoid
p123
sg112
F2.4457767705412436
sg113
S'OUTPUT'
p124
sg115
I2
sg116
F10.791426981554897
sbsI3
g0
(g106
g2
Ntp125
Rp126
(dp127
g110
g123
sg112
F1.778080491873114
sg113
g124
sg115
I3
sg116
F12.302175293593892
sbsI4
g0
(g106
g2
Ntp128
Rp129
(dp130
g110
g123
sg112
F-0.2982166380931608
sg113
g124
sg115
I4
sg116
F0.20360544737371045
sbsI5
g0
(g106
g2
Ntp131
Rp132
(dp133
g110
g123
sg112
F-0.24660965154256498
sg113
S'HIDDEN'
p134
sg115
I5
sg116
F1.6830486080503158
sbsI6
g0
(g106
g2
Ntp135
Rp136
(dp137
g110
g123
sg112
F2.2348527618900618
sg113
g134
sg115
I6
sg116
F5.200978739426877
sbsI7
g0
(g106
g2
Ntp138
Rp139
(dp140
g110
g123
sg112
F-2.0600106973857506
sg113
g134
sg115
I7
sg116
F5.85327384649479
sbsI8
g0
(g106
g2
Ntp141
Rp142
(dp143
g110
g123
sg112
F-2.012620115352596
sg113
g134
sg115
I8
sg116
F0.7256990392342324
sbsI9
g0
(g106
g2
Ntp144
Rp145
(dp146
g110
g123
sg112
F-4.875581755431166
sg113
g134
sg115
I9
sg116
F2.1915356906700594
sbsI10
g0
(g106
g2
Ntp147
Rp148
(dp149
g110
g123
sg112
F2.8790752717330563
sg113
g134
sg115
I10
sg116
F7.401150368880757
sbssS'node_order'
p150
(lp151
I8
aI6
aI9
aI7
aI10
aI5
asS'num_outputs'
p152
I3
sS'fitness'
p153
F1.0
sS'parent2_id'
p154
I27450
sS'config'
p155
g0
(cneat.config
Config
p156
g2
Ntp157
Rp158
(dp159
S'weight_stdev'
p160
F1.0
sS'disjoint_coefficient'
p161
F1.0
sS'prob_delete_node'
p162
F0.05
sS'initial_connection'
p163
Vfs_neat
p164
sS'stagnation_type'
p165
cneat.stagnation
DefaultStagnation
p166
sS'weight_mutation_power'
p167
F0.5
sS'excess_coefficient'
p168
F1.0
sS'compatibility_threshold'
p169
F3.0
sS'pop_size'
p170
I250
sS'weight_coefficient'
p171
F0.5
sS'feedforward'
p172
I01
sS'prob_add_node'
p173
F0.1
sS'genotype'
p174
g1
sS'type_config'
p175
(dp176
VDefaultStagnation
p177
(lp178
(S'species_fitness_func'
p179
Vmean
p180
tp181
a(S'max_stagnation'
p182
V10
p183
tp184
asVDefaultReproduction
p185
(lp186
(S'elitism'
p187
V2
p188
tp189
a(S'survival_threshold'
p190
V0.2
p191
tp192
assS'prob_mutate_activation'
p193
F0.0
sS'conn_gene_type'
p194
g10
sS'connection_fraction'
p195
NsS'activation_functions'
p196
(lp197
g123
asS'response_mutation_power'
p198
F0.5
sS'prob_add_conn'
p199
F0.1
sS'checkpoint_time_interval'
p200
NsS'checkpoint_gen_interval'
p201
NsS'prob_mutate_bias'
p202
F0.8
sS'reproduction_type'
p203
cneat.reproduction
DefaultReproduction
p204
sS'node_gene_type'
p205
g106
sS'output_nodes'
p206
I3
sS'input_nodes'
p207
I2
sS'prob_replace_weight'
p208
F0.1
sS'registry'
p209
(dp210
S'DefaultStagnation'
p211
g166
sS'DefaultReproduction'
p212
g204
ssS'hidden_nodes'
p213
I0
sS'report'
p214
I01
sS'prob_mutate_response'
p215
F0.8
sS'collect_statistics'
p216
I01
sS'max_weight'
p217
F30.0
sS'min_weight'
p218
F-30.0
sS'prob_toggle_link'
p219
F0.01
sS'save_best'
p220
I00
sS'max_fitness_threshold'
p221
F59999.0
sS'bias_mutation_power'
p222
F0.5
sS'prob_delete_conn'
p223
F0.05
sS'reset_on_extinction'
p224
I00
sS'prob_mutate_weight'
p225
F0.8
sbsg115
I29533
sb.