ccopy_reg
_reconstructor
p0
(cneat.genome
FFGenome
p1
c__builtin__
object
p2
Ntp3
Rp4
(dp5
S'species_id'
p6
I14
sS'conn_genes'
p7
(dp8
(I1
I2
tp9
g0
(cneat.genes
ConnectionGene
p10
g2
Ntp11
Rp12
(dp13
S'weight'
p14
F4.286169633825911
sS'enabled'
p15
I01
sS'out_node_id'
p16
I2
sS'in_node_id'
p17
I1
sbs(I1
I3
tp18
g0
(g10
g2
Ntp19
Rp20
(dp21
g14
F5.472480055971764
sg15
I01
sg16
I3
sg17
I1
sbs(I7
I6
tp22
g0
(g10
g2
Ntp23
Rp24
(dp25
g14
F0.37429160920162724
sg15
I01
sg16
I6
sg17
I7
sbs(I1
I4
tp26
g0
(g10
g2
Ntp27
Rp28
(dp29
g14
F-0.5462325073760667
sg15
I00
sg16
I4
sg17
I1
sbs(I6
I3
tp30
g0
(g10
g2
Ntp31
Rp32
(dp33
g14
F-2.0493023570008297
sg15
I01
sg16
I3
sg17
I6
sbs(I6
I2
tp34
g0
(g10
g2
Ntp35
Rp36
(dp37
g14
F-1.9133469427247838
sg15
I01
sg16
I2
sg17
I6
sbs(I1
I7
tp38
g0
(g10
g2
Ntp39
Rp40
(dp41
g14
F-2.091037119737935
sg15
I01
sg16
I7
sg17
I1
sbs(I0
I2
tp42
g0
(g10
g2
Ntp43
Rp44
(dp45
g14
F0.2803396680150183
sg15
I01
sg16
I2
sg17
I0
sbssS'parent1_id'
p46
I7960
sS'num_inputs'
p47
I2
sS'node_genes'
p48
(dp49
I0
g0
(cneat.genes
NodeGene
p50
g2
Ntp51
Rp52
(dp53
S'activation_type'
p54
S'sigmoid'
p55
sS'bias'
p56
F0.0
sS'type'
p57
S'INPUT'
p58
sS'ID'
p59
I0
sS'response'
p60
F4.924273
sbsI1
g0
(g50
g2
Ntp61
Rp62
(dp63
g54
g55
sg56
F0.0
sg57
g58
sg59
I1
sg60
F4.924273
sbsI2
g0
(g50
g2
Ntp64
Rp65
(dp66
g54
Vsigmoid
p67
sg56
F-1.6252643749290807
sg57
S'OUTPUT'
p68
sg59
I2
sg60
F9.574949483396196
sbsI3
g0
(g50
g2
Ntp69
Rp70
(dp71
g54
g67
sg56
F-6.554656580243653
sg57
g68
sg59
I3
sg60
F7.486105864282101
sbsI4
g0
(g50
g2
Ntp72
Rp73
(dp74
g54
g67
sg56
F-1.3805845294047019
sg57
g68
sg59
I4
sg60
F3.145445564591626
sbsI6
g0
(g50
g2
Ntp75
Rp76
(dp77
g54
g67
sg56
F2.541833786455086
sg57
S'HIDDEN'
p78
sg59
I6
sg60
F6.182346838178565
sbsI7
g0
(g50
g2
Ntp79
Rp80
(dp81
g54
g67
sg56
F-0.7848772132130231
sg57
g78
sg59
I7
sg60
F5.814969551820543
sbssS'node_order'
p82
(lp83
I7
aI6
asS'num_outputs'
p84
I3
sS'fitness'
p85
F1.0
sS'parent2_id'
p86
I6999
sS'config'
p87
g0
(cneat.config
Config
p88
g2
Ntp89
Rp90
(dp91
S'weight_stdev'
p92
F1.0
sS'disjoint_coefficient'
p93
F1.0
sS'prob_delete_node'
p94
F0.05
sS'initial_connection'
p95
Vfs_neat
p96
sS'stagnation_type'
p97
cneat.stagnation
DefaultStagnation
p98
sS'weight_mutation_power'
p99
F0.5
sS'excess_coefficient'
p100
F1.0
sS'compatibility_threshold'
p101
F3.0
sS'pop_size'
p102
I300
sS'weight_coefficient'
p103
F0.5
sS'feedforward'
p104
I01
sS'prob_add_node'
p105
F0.3
sS'genotype'
p106
g1
sS'type_config'
p107
(dp108
VDefaultStagnation
p109
(lp110
(S'species_fitness_func'
p111
Vmean
p112
tp113
a(S'max_stagnation'
p114
V10
p115
tp116
asVDefaultReproduction
p117
(lp118
(S'elitism'
p119
V2
p120
tp121
a(S'survival_threshold'
p122
V0.2
p123
tp124
assS'prob_mutate_activation'
p125
F0.0
sS'conn_gene_type'
p126
g10
sS'connection_fraction'
p127
NsS'activation_functions'
p128
(lp129
g67
asS'response_mutation_power'
p130
F0.5
sS'prob_add_conn'
p131
F0.3
sS'checkpoint_time_interval'
p132
NsS'checkpoint_gen_interval'
p133
NsS'prob_mutate_bias'
p134
F0.8
sS'reproduction_type'
p135
cneat.reproduction
DefaultReproduction
p136
sS'node_gene_type'
p137
g50
sS'output_nodes'
p138
I3
sS'input_nodes'
p139
I2
sS'prob_replace_weight'
p140
F0.1
sS'registry'
p141
(dp142
S'DefaultStagnation'
p143
g98
sS'DefaultReproduction'
p144
g136
ssS'hidden_nodes'
p145
I0
sS'report'
p146
I01
sS'prob_mutate_response'
p147
F0.8
sS'collect_statistics'
p148
I01
sS'max_weight'
p149
F30.0
sS'min_weight'
p150
F-30.0
sS'prob_toggle_link'
p151
F0.01
sS'save_best'
p152
I00
sS'max_fitness_threshold'
p153
F59999.0
sS'bias_mutation_power'
p154
F0.5
sS'prob_delete_conn'
p155
F0.05
sS'reset_on_extinction'
p156
I00
sS'prob_mutate_weight'
p157
F0.8
sbsg59
I8202
sb.