ccopy_reg
_reconstructor
p0
(cneat.genome
FFGenome
p1
c__builtin__
object
p2
Ntp3
Rp4
(dp5
S'species_id'
p6
I15
sS'conn_genes'
p7
(dp8
(I1
I2
tp9
g0
(cneat.genes
ConnectionGene
p10
g2
Ntp11
Rp12
(dp13
S'weight'
p14
F0.9635139082276021
sS'enabled'
p15
I00
sS'out_node_id'
p16
I2
sS'in_node_id'
p17
I1
sbs(I1
I3
tp18
g0
(g10
g2
Ntp19
Rp20
(dp21
g14
F1.1360012144579774
sg15
I01
sg16
I3
sg17
I1
sbs(I6
I7
tp22
g0
(g10
g2
Ntp23
Rp24
(dp25
g14
F0.7061936043271614
sg15
I01
sg16
I7
sg17
I6
sbs(I6
I8
tp26
g0
(g10
g2
Ntp27
Rp28
(dp29
g14
F1.0079025698715394
sg15
I00
sg16
I8
sg17
I6
sbs(I0
I6
tp30
g0
(g10
g2
Ntp31
Rp32
(dp33
g14
F0.06445095494719774
sg15
I01
sg16
I6
sg17
I0
sbs(I9
I8
tp34
g0
(g10
g2
Ntp35
Rp36
(dp37
g14
F2.5251665803995276
sg15
I01
sg16
I8
sg17
I9
sbs(I1
I4
tp38
g0
(g10
g2
Ntp39
Rp40
(dp41
g14
F-0.9870195181470386
sg15
I00
sg16
I4
sg17
I1
sbs(I6
I3
tp42
g0
(g10
g2
Ntp43
Rp44
(dp45
g14
F-7.136947183694135
sg15
I01
sg16
I3
sg17
I6
sbs(I1
I5
tp46
g0
(g10
g2
Ntp47
Rp48
(dp49
g14
F2.24254820403139
sg15
I01
sg16
I5
sg17
I1
sbs(I1
I8
tp50
g0
(g10
g2
Ntp51
Rp52
(dp53
g14
F3.8625327679016803
sg15
I00
sg16
I8
sg17
I1
sbs(I7
I5
tp54
g0
(g10
g2
Ntp55
Rp56
(dp57
g14
F-2.1808517827688836
sg15
I01
sg16
I5
sg17
I7
sbs(I0
I4
tp58
g0
(g10
g2
Ntp59
Rp60
(dp61
g14
F-1.3602332674372206
sg15
I00
sg16
I4
sg17
I0
sbs(I6
I2
tp62
g0
(g10
g2
Ntp63
Rp64
(dp65
g14
F-2.3853848502190313
sg15
I00
sg16
I2
sg17
I6
sbs(I0
I3
tp66
g0
(g10
g2
Ntp67
Rp68
(dp69
g14
F-4.372052315910028
sg15
I01
sg16
I3
sg17
I0
sbs(I5
I3
tp70
g0
(g10
g2
Ntp71
Rp72
(dp73
g14
F10.7815252013963
sg15
I01
sg16
I3
sg17
I5
sbs(I0
I2
tp74
g0
(g10
g2
Ntp75
Rp76
(dp77
g14
F5.023953079140905
sg15
I00
sg16
I2
sg17
I0
sbs(I6
I5
tp78
g0
(g10
g2
Ntp79
Rp80
(dp81
g14
F-0.17532714976103161
sg15
I00
sg16
I5
sg17
I6
sbs(I8
I2
tp82
g0
(g10
g2
Ntp83
Rp84
(dp85
g14
F2.761334963757586
sg15
I01
sg16
I2
sg17
I8
sbssS'parent1_id'
p86
I46398
sS'num_inputs'
p87
I2
sS'node_genes'
p88
(dp89
I0
g0
(cneat.genes
NodeGene
p90
g2
Ntp91
Rp92
(dp93
S'activation_type'
p94
S'sigmoid'
p95
sS'bias'
p96
F0.0
sS'type'
p97
S'INPUT'
p98
sS'ID'
p99
I0
sS'response'
p100
F4.924273
sbsI1
g0
(g90
g2
Ntp101
Rp102
(dp103
g94
g95
sg96
F0.0
sg97
g98
sg99
I1
sg100
F4.924273
sbsI2
g0
(g90
g2
Ntp104
Rp105
(dp106
g94
Vsigmoid
p107
sg96
F4.356992205611912
sg97
S'OUTPUT'
p108
sg99
I2
sg100
F8.475100872400189
sbsI3
g0
(g90
g2
Ntp109
Rp110
(dp111
g94
g107
sg96
F-5.091176472798857
sg97
g108
sg99
I3
sg100
F8.748865387274297
sbsI4
g0
(g90
g2
Ntp112
Rp113
(dp114
g94
g107
sg96
F-0.5068024855637006
sg97
g108
sg99
I4
sg100
F5.713598146954824
sbsI5
g0
(g90
g2
Ntp115
Rp116
(dp117
g94
g107
sg96
F1.3342358230413693
sg97
S'HIDDEN'
p118
sg99
I5
sg100
F7.146377850399423
sbsI6
g0
(g90
g2
Ntp119
Rp120
(dp121
g94
g107
sg96
F3.0155054644340176
sg97
g118
sg99
I6
sg100
F5.547491268203752
sbsI7
g0
(g90
g2
Ntp122
Rp123
(dp124
g94
g107
sg96
F0.8548425653840166
sg97
g118
sg99
I7
sg100
F6.435800762290959
sbsI8
g0
(g90
g2
Ntp125
Rp126
(dp127
g94
g107
sg96
F0.5923016238354473
sg97
g118
sg99
I8
sg100
F5.975529447959669
sbsI9
g0
(g90
g2
Ntp128
Rp129
(dp130
g94
g107
sg96
F1.9267398343657516
sg97
g118
sg99
I9
sg100
F2.374831870382492
sbssS'node_order'
p131
(lp132
I6
aI7
aI9
aI5
aI8
asS'num_outputs'
p133
I3
sS'fitness'
p134
F0.9999999688840846
sS'parent2_id'
p135
I46398
sS'config'
p136
g0
(cneat.config
Config
p137
g2
Ntp138
Rp139
(dp140
S'weight_stdev'
p141
F1.0
sS'disjoint_coefficient'
p142
F1.0
sS'prob_delete_node'
p143
F0.05
sS'initial_connection'
p144
Vfs_neat
p145
sS'stagnation_type'
p146
cneat.stagnation
DefaultStagnation
p147
sS'weight_mutation_power'
p148
F0.5
sS'excess_coefficient'
p149
F1.0
sS'compatibility_threshold'
p150
F3.0
sS'pop_size'
p151
I250
sS'weight_coefficient'
p152
F0.5
sS'feedforward'
p153
I01
sS'prob_add_node'
p154
F0.1
sS'genotype'
p155
g1
sS'type_config'
p156
(dp157
VDefaultStagnation
p158
(lp159
(S'species_fitness_func'
p160
Vmean
p161
tp162
a(S'max_stagnation'
p163
V10
p164
tp165
asVDefaultReproduction
p166
(lp167
(S'elitism'
p168
V2
p169
tp170
a(S'survival_threshold'
p171
V0.2
p172
tp173
assS'prob_mutate_activation'
p174
F0.0
sS'conn_gene_type'
p175
g10
sS'connection_fraction'
p176
NsS'activation_functions'
p177
(lp178
g107
asS'response_mutation_power'
p179
F0.5
sS'prob_add_conn'
p180
F0.1
sS'checkpoint_time_interval'
p181
NsS'checkpoint_gen_interval'
p182
NsS'prob_mutate_bias'
p183
F0.8
sS'reproduction_type'
p184
cneat.reproduction
DefaultReproduction
p185
sS'node_gene_type'
p186
g90
sS'output_nodes'
p187
I3
sS'input_nodes'
p188
I2
sS'prob_replace_weight'
p189
F0.1
sS'registry'
p190
(dp191
S'DefaultStagnation'
p192
g147
sS'DefaultReproduction'
p193
g185
ssS'hidden_nodes'
p194
I0
sS'report'
p195
I01
sS'prob_mutate_response'
p196
F0.8
sS'collect_statistics'
p197
I01
sS'max_weight'
p198
F30.0
sS'min_weight'
p199
F-30.0
sS'prob_toggle_link'
p200
F0.01
sS'save_best'
p201
I00
sS'max_fitness_threshold'
p202
F59999.0
sS'bias_mutation_power'
p203
F0.5
sS'prob_delete_conn'
p204
F0.05
sS'reset_on_extinction'
p205
I00
sS'prob_mutate_weight'
p206
F0.8
sbsg99
I46630
sb.