ccopy_reg
_reconstructor
p0
(cneat.genome
FFGenome
p1
c__builtin__
object
p2
Ntp3
Rp4
(dp5
S'species_id'
p6
I8
sS'conn_genes'
p7
(dp8
(I0
I6
tp9
g0
(cneat.genes
ConnectionGene
p10
g2
Ntp11
Rp12
(dp13
S'weight'
p14
F0.7677692698448715
sS'enabled'
p15
I01
sS'out_node_id'
p16
I6
sS'in_node_id'
p17
I0
sbs(I0
I5
tp18
g0
(g10
g2
Ntp19
Rp20
(dp21
g14
F0.9888146452854335
sg15
I00
sg16
I5
sg17
I0
sbs(I0
I4
tp22
g0
(g10
g2
Ntp23
Rp24
(dp25
g14
F-1.0893157102213331
sg15
I00
sg16
I4
sg17
I0
sbs(I0
I3
tp26
g0
(g10
g2
Ntp27
Rp28
(dp29
g14
F-1.6242783061708723
sg15
I00
sg16
I3
sg17
I0
sbs(I5
I2
tp30
g0
(g10
g2
Ntp31
Rp32
(dp33
g14
F2.2075104022788596
sg15
I01
sg16
I2
sg17
I5
sbs(I0
I2
tp34
g0
(g10
g2
Ntp35
Rp36
(dp37
g14
F-5.833199621802937
sg15
I00
sg16
I2
sg17
I0
sbs(I6
I5
tp38
g0
(g10
g2
Ntp39
Rp40
(dp41
g14
F0.40324851557465646
sg15
I01
sg16
I5
sg17
I6
sbssS'parent1_id'
p42
I13632
sS'num_inputs'
p43
I2
sS'node_genes'
p44
(dp45
I0
g0
(cneat.genes
NodeGene
p46
g2
Ntp47
Rp48
(dp49
S'activation_type'
p50
S'sigmoid'
p51
sS'bias'
p52
F0.0
sS'type'
p53
S'INPUT'
p54
sS'ID'
p55
I0
sS'response'
p56
F4.924273
sbsI1
g0
(g46
g2
Ntp57
Rp58
(dp59
g50
g51
sg52
F0.0
sg53
g54
sg55
I1
sg56
F4.924273
sbsI2
g0
(g46
g2
Ntp60
Rp61
(dp62
g50
Vsigmoid
p63
sg52
F3.3979012453508677
sg53
S'OUTPUT'
p64
sg55
I2
sg56
F11.87061792640041
sbsI3
g0
(g46
g2
Ntp65
Rp66
(dp67
g50
g63
sg52
F-0.5872716011004572
sg53
g64
sg55
I3
sg56
F12.213089071561475
sbsI4
g0
(g46
g2
Ntp68
Rp69
(dp70
g50
g63
sg52
F3.087654353734281
sg53
g64
sg55
I4
sg56
F9.75583924466344
sbsI5
g0
(g46
g2
Ntp71
Rp72
(dp73
g50
g63
sg52
F0.4155655800683752
sg53
S'HIDDEN'
p74
sg55
I5
sg56
F3.8247615062519946
sbsI6
g0
(g46
g2
Ntp75
Rp76
(dp77
g50
g63
sg52
F0.0
sg53
g74
sg55
I6
sg56
F5.096892599822152
sbssS'node_order'
p78
(lp79
I6
aI5
asS'num_outputs'
p80
I3
sS'fitness'
p81
F1.0
sS'parent2_id'
p82
I13429
sS'config'
p83
g0
(cneat.config
Config
p84
g2
Ntp85
Rp86
(dp87
S'weight_stdev'
p88
F1.0
sS'disjoint_coefficient'
p89
F1.0
sS'prob_delete_node'
p90
F0.05
sS'initial_connection'
p91
Vfs_neat
p92
sS'stagnation_type'
p93
cneat.stagnation
DefaultStagnation
p94
sS'weight_mutation_power'
p95
F0.5
sS'excess_coefficient'
p96
F1.0
sS'compatibility_threshold'
p97
F3.0
sS'pop_size'
p98
I250
sS'weight_coefficient'
p99
F0.5
sS'feedforward'
p100
I01
sS'prob_add_node'
p101
F0.1
sS'genotype'
p102
g1
sS'type_config'
p103
(dp104
VDefaultStagnation
p105
(lp106
(S'species_fitness_func'
p107
Vmean
p108
tp109
a(S'max_stagnation'
p110
V10
p111
tp112
asVDefaultReproduction
p113
(lp114
(S'elitism'
p115
V2
p116
tp117
a(S'survival_threshold'
p118
V0.2
p119
tp120
assS'prob_mutate_activation'
p121
F0.0
sS'conn_gene_type'
p122
g10
sS'connection_fraction'
p123
NsS'activation_functions'
p124
(lp125
g63
asS'response_mutation_power'
p126
F0.5
sS'prob_add_conn'
p127
F0.1
sS'checkpoint_time_interval'
p128
NsS'checkpoint_gen_interval'
p129
NsS'prob_mutate_bias'
p130
F0.8
sS'reproduction_type'
p131
cneat.reproduction
DefaultReproduction
p132
sS'node_gene_type'
p133
g46
sS'output_nodes'
p134
I3
sS'input_nodes'
p135
I2
sS'prob_replace_weight'
p136
F0.1
sS'registry'
p137
(dp138
S'DefaultStagnation'
p139
g94
sS'DefaultReproduction'
p140
g132
ssS'hidden_nodes'
p141
I0
sS'report'
p142
I01
sS'prob_mutate_response'
p143
F0.8
sS'collect_statistics'
p144
I01
sS'max_weight'
p145
F30.0
sS'min_weight'
p146
F-30.0
sS'prob_toggle_link'
p147
F0.01
sS'save_best'
p148
I00
sS'max_fitness_threshold'
p149
F59999.0
sS'bias_mutation_power'
p150
F0.5
sS'prob_delete_conn'
p151
F0.05
sS'reset_on_extinction'
p152
I00
sS'prob_mutate_weight'
p153
F0.8
sbsg55
I13814
sb.